; Function Attrs: nounwind uwtable
define void @Aig_ObjPrintVerboseCone(ptr noundef %0, ptr noundef %1, i32 noundef %2) local_unnamed_addr #1 {
  %4 = alloca ptr, align 8
  store ptr %1, ptr %4, align 8, !tbaa !43
  %5 = call ptr @Aig_ManDfsArray(ptr noundef %0, ptr noundef nonnull %4, i32 noundef 1) #25
  %6 = getelementptr i8, ptr %5, i64 4
  %.val10 = load i32, ptr %6, align 4, !tbaa !22
  %7 = icmp sgt i32 %.val10, 0
  br i1 %7, label %.lr.ph, label %.critedge

.lr.ph:                                           ; preds = %3
  %8 = getelementptr i8, ptr %5, i64 8
  br label %9

9:                                                ; preds = %.lr.ph, %9
  %indvars.iv = phi i64 [ 0, %.lr.ph ], [ %indvars.iv.next, %9 ]
  %.val9 = load ptr, ptr %8, align 8, !tbaa !24
  %10 = getelementptr inbounds nuw ptr, ptr %.val9, i64 %indvars.iv
  %11 = load ptr, ptr %10, align 8, !tbaa !25
  call void @Aig_ObjPrintVerbose(ptr noundef %11, i32 poison)
  %putchar8 = call i32 @putchar(i32 10)
  %indvars.iv.next = add nuw nsw i64 %indvars.iv, 1
  %.val = load i32, ptr %6, align 4, !tbaa !22
  %12 = sext i32 %.val to i64
  %13 = icmp slt i64 %indvars.iv.next, %12
  br i1 %13, label %9, label %.critedge, !llvm.loop !52

.critedge:                                        ; preds = %9, %3
  %putchar = call i32 @putchar(i32 10)
  %14 = getelementptr inbounds nuw i8, ptr %5, i64 8
  %15 = load ptr, ptr %14, align 8, !tbaa !24
  %.not.i = icmp eq ptr %15, null
  br i1 %.not.i, label %Vec_PtrFree.exit, label %16

16:                                               ; preds = %.critedge
  call void @free(ptr noundef nonnull %15) #25
  br label %Vec_PtrFree.exit

Vec_PtrFree.exit:                                 ; preds = %.critedge, %16
  call void @free(ptr noundef nonnull %5) #25
  ret void
}